target datalayout = "e-m:e-p270:32:32-p271:32:32-p272:64:64-i64:64-i128:128-f80:128-n8:16:32:64-S128"
target triple = "x86_64-pc-linux-gnu"

; Function Attrs: nounwind uwtable
define internal i32 @_php_filter_validate_domain(ptr noundef %0, i64 noundef %1, i64 noundef %2) #0 {
  %4 = alloca i32, align 4
  %5 = alloca ptr, align 8
  %6 = alloca i64, align 8
  %7 = alloca i64, align 8
  %8 = alloca ptr, align 8
  %9 = alloca ptr, align 8
  %10 = alloca ptr, align 8
  %11 = alloca i64, align 8
  %12 = alloca i32, align 4
  %13 = alloca i8, align 1
  store ptr %0, ptr %5, align 8
  store i64 %1, ptr %6, align 8
  store i64 %2, ptr %7, align 8
  %14 = load i64, ptr %7, align 8
  %15 = and i64 %14, 1048576
  %16 = trunc i64 %15 to i32
  store i32 %16, ptr %12, align 4
  store i8 1, ptr %13, align 1
  %17 = load ptr, ptr %5, align 8
  store ptr %17, ptr %9, align 8
  %18 = load i64, ptr %6, align 8
  store i64 %18, ptr %11, align 8
  %19 = load ptr, ptr %5, align 8
  %20 = load i64, ptr %11, align 8
  %21 = getelementptr inbounds i8, ptr %19, i64 %20
  store ptr %21, ptr %8, align 8
  %22 = load ptr, ptr %8, align 8
  %23 = getelementptr inbounds i8, ptr %22, i64 -1
  store ptr %23, ptr %10, align 8
  %24 = load i64, ptr %11, align 8
  %25 = icmp ugt i64 %24, 0
  br i1 %25, label %26, label %35

26:                                               ; preds = %3
  %27 = load ptr, ptr %10, align 8
  %28 = load i8, ptr %27, align 1
  %29 = sext i8 %28 to i32
  %30 = icmp eq i32 %29, 46
  br i1 %30, label %31, label %35

31:                                               ; preds = %26
  %32 = load ptr, ptr %10, align 8
  store ptr %32, ptr %8, align 8
  %33 = load i64, ptr %11, align 8
  %34 = add i64 %33, -1
  store i64 %34, ptr %11, align 8
  br label %35

35:                                               ; preds = %31, %26, %3
  %36 = load i64, ptr %11, align 8
  %37 = icmp ugt i64 %36, 253
  br i1 %37, label %38, label %39

38:                                               ; preds = %35
  store i32 0, ptr %4, align 4
  br label %139

39:                                               ; preds = %35
  %40 = load ptr, ptr %9, align 8
  %41 = load i8, ptr %40, align 1
  %42 = sext i8 %41 to i32
  %43 = icmp eq i32 %42, 46
  br i1 %43, label %59, label %44

44:                                               ; preds = %39
  %45 = load i32, ptr %12, align 4
  %46 = icmp ne i32 %45, 0
  br i1 %46, label %47, label %60

47:                                               ; preds = %44
  %48 = call ptr @__ctype_b_loc() #13
  %49 = load ptr, ptr %48, align 8
  %50 = load ptr, ptr %9, align 8
  %51 = load i8, ptr %50, align 1
  %52 = zext i8 %51 to i32
  %53 = sext i32 %52 to i64
  %54 = getelementptr inbounds i16, ptr %49, i64 %53
  %55 = load i16, ptr %54, align 2
  %56 = zext i16 %55 to i32
  %57 = and i32 %56, 8
  %58 = icmp ne i32 %57, 0
  br i1 %58, label %60, label %59

59:                                               ; preds = %47, %39
  store i32 0, ptr %4, align 4
  br label %139

60:                                               ; preds = %47, %44
  br label %61

61:                                               ; preds = %135, %60
  %62 = load ptr, ptr %9, align 8
  %63 = load ptr, ptr %8, align 8
  %64 = icmp ult ptr %62, %63
  br i1 %64, label %65, label %138

65:                                               ; preds = %61
  %66 = load ptr, ptr %9, align 8
  %67 = load i8, ptr %66, align 1
  %68 = sext i8 %67 to i32
  %69 = icmp eq i32 %68, 46
  br i1 %69, label %70, label %107

70:                                               ; preds = %65
  %71 = load ptr, ptr %9, align 8
  %72 = getelementptr inbounds i8, ptr %71, i64 1
  %73 = load i8, ptr %72, align 1
  %74 = sext i8 %73 to i32
  %75 = icmp eq i32 %74, 46
  br i1 %75, label %105, label %76

76:                                               ; preds = %70
  %77 = load i32, ptr %12, align 4
  %78 = icmp ne i32 %77, 0
  br i1 %78, label %79, label %106

79:                                               ; preds = %76
  %80 = call ptr @__ctype_b_loc() #13
  %81 = load ptr, ptr %80, align 8
  %82 = load ptr, ptr %9, align 8
  %83 = getelementptr inbounds i8, ptr %82, i64 -1
  %84 = load i8, ptr %83, align 1
  %85 = zext i8 %84 to i32
  %86 = sext i32 %85 to i64
  %87 = getelementptr inbounds i16, ptr %81, i64 %86
  %88 = load i16, ptr %87, align 2
  %89 = zext i16 %88 to i32
  %90 = and i32 %89, 8
  %91 = icmp ne i32 %90, 0
  br i1 %91, label %92, label %105

92:                                               ; preds = %79
  %93 = call ptr @__ctype_b_loc() #13
  %94 = load ptr, ptr %93, align 8
  %95 = load ptr, ptr %9, align 8
  %96 = getelementptr inbounds i8, ptr %95, i64 1
  %97 = load i8, ptr %96, align 1
  %98 = zext i8 %97 to i32
  %99 = sext i32 %98 to i64
  %100 = getelementptr inbounds i16, ptr %94, i64 %99
  %101 = load i16, ptr %100, align 2
  %102 = zext i16 %101 to i32
  %103 = and i32 %102, 8
  %104 = icmp ne i32 %103, 0
  br i1 %104, label %106, label %105

105:                                              ; preds = %92, %79, %70
  store i32 0, ptr %4, align 4
  br label %139

106:                                              ; preds = %92, %76
  store i8 1, ptr %13, align 1
  br label %135

107:                                              ; preds = %65
  %108 = load i8, ptr %13, align 1
  %109 = zext i8 %108 to i32
  %110 = icmp sgt i32 %109, 63
  br i1 %110, label %131, label %111

111:                                              ; preds = %107
  %112 = load i32, ptr %12, align 4
  %113 = icmp ne i32 %112, 0
  br i1 %113, label %114, label %132

114:                                              ; preds = %111
  %115 = load ptr, ptr %9, align 8
  %116 = load i8, ptr %115, align 1
  %117 = sext i8 %116 to i32
  %118 = icmp ne i32 %117, 45
  br i1 %118, label %119, label %132

119:                                              ; preds = %114
  %120 = call ptr @__ctype_b_loc() #13
  %121 = load ptr, ptr %120, align 8
  %122 = load ptr, ptr %9, align 8
  %123 = load i8, ptr %122, align 1
  %124 = zext i8 %123 to i32
  %125 = sext i32 %124 to i64
  %126 = getelementptr inbounds i16, ptr %121, i64 %125
  %127 = load i16, ptr %126, align 2
  %128 = zext i16 %127 to i32
  %129 = and i32 %128, 8
  %130 = icmp ne i32 %129, 0
  br i1 %130, label %132, label %131

131:                                              ; preds = %119, %107
  store i32 0, ptr %4, align 4
  br label %139

132:                                              ; preds = %119, %114, %111
  %133 = load i8, ptr %13, align 1
  %134 = add i8 %133, 1
  store i8 %134, ptr %13, align 1
  br label %135

135:                                              ; preds = %132, %106
  %136 = load ptr, ptr %9, align 8
  %137 = getelementptr inbounds i8, ptr %136, i32 1
  store ptr %137, ptr %9, align 8
  br label %61

138:                                              ; preds = %61
  store i32 1, ptr %4, align 4
  br label %139

139:                                              ; preds = %138, %131, %105, %59, %38
  %140 = load i32, ptr %4, align 4
  ret i32 %140
}