; Function Attrs: nofree nosync nounwind memory(read, inaccessiblemem: none) uwtable
define internal fastcc noundef i32 @_php_filter_validate_domain(ptr noundef readonly %0, i64 noundef %1, i64 noundef %2) unnamed_addr #6 {
  %4 = getelementptr inbounds i8, ptr %0, i64 %1
  %.not = icmp eq i64 %1, 0
  br i1 %.not, label %.thread, label %5

5:                                                ; preds = %3
  %6 = getelementptr inbounds i8, ptr %4, i64 -1
  %7 = load i8, ptr %6, align 1
  %8 = icmp eq i8 %7, 46
  %spec.select = select i1 %8, ptr %6, ptr %4
  %9 = sext i1 %8 to i64
  %spec.select40 = add i64 %9, %1
  %10 = icmp ugt i64 %spec.select40, 253
  br i1 %10, label %.loopexit, label %.thread

.thread:                                          ; preds = %3, %5
  %.02943 = phi ptr [ %spec.select, %5 ], [ %4, %3 ]
  %11 = load i8, ptr %0, align 1
  %12 = icmp eq i8 %11, 46
  br i1 %12, label %.loopexit, label %13

13:                                               ; preds = %.thread
  %14 = and i64 %2, 1048576
  %.not34 = icmp eq i64 %14, 0
  br i1 %.not34, label %22, label %15

15:                                               ; preds = %13
  %16 = tail call ptr @__ctype_b_loc() #17
  %17 = load ptr, ptr %16, align 8
  %18 = zext i8 %11 to i64
  %19 = getelementptr inbounds i16, ptr %17, i64 %18
  %20 = load i16, ptr %19, align 2
  %21 = and i16 %20, 8
  %.not35 = icmp eq i16 %21, 0
  br i1 %.not35, label %.loopexit, label %.thread64

22:                                               ; preds = %13
  %23 = icmp ugt ptr %.02943, %0
  br i1 %23, label %.lr.ph.split.us.split, label %.loopexit

.thread64:                                        ; preds = %15
  %24 = icmp ugt ptr %.02943, %0
  br i1 %24, label %.lr.ph.split, label %.loopexit

.lr.ph.split.us.split:                            ; preds = %22, %35
  %.045.us = phi i8 [ %.1.us, %35 ], [ 1, %22 ]
  %.03044.us = phi ptr [ %36, %35 ], [ %0, %22 ]
  %25 = load i8, ptr %.03044.us, align 1
  %26 = icmp eq i8 %25, 46
  br i1 %26, label %31, label %27

27:                                               ; preds = %.lr.ph.split.us.split
  %28 = icmp ugt i8 %.045.us, 63
  br i1 %28, label %.loopexit, label %29

29:                                               ; preds = %27
  %30 = add nuw nsw i8 %.045.us, 1
  br label %35

31:                                               ; preds = %.lr.ph.split.us.split
  %32 = getelementptr inbounds i8, ptr %.03044.us, i64 1
  %33 = load i8, ptr %32, align 1
  %34 = icmp eq i8 %33, 46
  br i1 %34, label %.loopexit, label %35

35:                                               ; preds = %31, %29
  %.1.us = phi i8 [ %30, %29 ], [ 1, %31 ]
  %36 = getelementptr inbounds i8, ptr %.03044.us, i64 1
  %exitcond63.not = icmp eq ptr %36, %.02943
  br i1 %exitcond63.not, label %.loopexit, label %.lr.ph.split.us.split

.lr.ph.split:                                     ; preds = %.thread64, %69
  %.045 = phi i8 [ %.1, %69 ], [ 1, %.thread64 ]
  %.03044 = phi ptr [ %70, %69 ], [ %0, %.thread64 ]
  %37 = load i8, ptr %.03044, align 1
  %38 = icmp eq i8 %37, 46
  br i1 %38, label %39, label %57

39:                                               ; preds = %.lr.ph.split
  %40 = getelementptr inbounds i8, ptr %.03044, i64 1
  %41 = load i8, ptr %40, align 1
  %42 = icmp eq i8 %41, 46
  br i1 %42, label %.loopexit, label %43

43:                                               ; preds = %39
  %44 = tail call ptr @__ctype_b_loc() #17
  %45 = load ptr, ptr %44, align 8
  %46 = getelementptr inbounds i8, ptr %.03044, i64 -1
  %47 = load i8, ptr %46, align 1
  %48 = zext i8 %47 to i64
  %49 = getelementptr inbounds i16, ptr %45, i64 %48
  %50 = load i16, ptr %49, align 2
  %51 = and i16 %50, 8
  %.not38 = icmp eq i16 %51, 0
  br i1 %.not38, label %.loopexit, label %52

52:                                               ; preds = %43
  %53 = zext i8 %41 to i64
  %54 = getelementptr inbounds i16, ptr %45, i64 %53
  %55 = load i16, ptr %54, align 2
  %56 = and i16 %55, 8
  %.not39 = icmp eq i16 %56, 0
  br i1 %.not39, label %.loopexit, label %69

57:                                               ; preds = %.lr.ph.split
  %58 = icmp ugt i8 %.045, 63
  br i1 %58, label %.loopexit, label %59

59:                                               ; preds = %57
  %.not36 = icmp eq i8 %37, 45
  br i1 %.not36, label %67, label %60

60:                                               ; preds = %59
  %61 = tail call ptr @__ctype_b_loc() #17
  %62 = load ptr, ptr %61, align 8
  %63 = zext i8 %37 to i64
  %64 = getelementptr inbounds i16, ptr %62, i64 %63
  %65 = load i16, ptr %64, align 2
  %66 = and i16 %65, 8
  %.not37 = icmp eq i16 %66, 0
  br i1 %.not37, label %.loopexit, label %67

67:                                               ; preds = %60, %59
  %68 = add nuw nsw i8 %.045, 1
  br label %69

69:                                               ; preds = %52, %67
  %.1 = phi i8 [ %68, %67 ], [ 1, %52 ]
  %70 = getelementptr inbounds i8, ptr %.03044, i64 1
  %exitcond.not = icmp eq ptr %70, %.02943
  br i1 %exitcond.not, label %.loopexit, label %.lr.ph.split

.loopexit:                                        ; preds = %52, %43, %39, %60, %57, %69, %31, %27, %35, %.thread64, %22, %.thread, %15, %5
  %.027 = phi i32 [ 0, %5 ], [ 0, %15 ], [ 0, %.thread ], [ 1, %22 ], [ 1, %.thread64 ], [ 0, %31 ], [ 0, %27 ], [ 1, %35 ], [ 0, %52 ], [ 0, %43 ], [ 0, %39 ], [ 0, %60 ], [ 0, %57 ], [ 1, %69 ]
  ret i32 %.027
}